; Function Attrs: nounwind uwtable
define dso_local void @CacheInvalidateRelcacheByTuple(ptr noundef readonly captures(none) %0) local_unnamed_addr #0 {
  %2 = getelementptr i8, ptr %0, i64 16
  %.val = load ptr, ptr %2, align 8
  %3 = getelementptr inbounds nuw i8, ptr %.val, i64 22
  %4 = load i8, ptr %3, align 2
  %5 = zext i8 %4 to i64
  %6 = getelementptr inbounds nuw i8, ptr %.val, i64 %5
  %7 = load i32, ptr %6, align 4
  %8 = getelementptr inbounds nuw i8, ptr %6, i64 113
  %9 = load i8, ptr %8, align 1, !range !11, !noundef !12
  %10 = trunc nuw i8 %9 to i1
  %11 = load i32, ptr @MyDatabaseId, align 4
  %.0 = select i1 %10, i32 0, i32 %11
  %12 = tail call ptr @PrepareInvalidationState()
  tail call fastcc void @RegisterRelcacheInvalidation(ptr noundef %12, i32 noundef %.0, i32 noundef %7)
  ret void
}